; Function Attrs: mustprogress nounwind uwtable
define hidden noundef ptr @_ZN7AbsNode5IdealEP8PhaseGVNb(ptr noundef nonnull align 8 dereferenceable(52) %0, ptr noundef %1, i1 zeroext %2) unnamed_addr #0 align 2 {
  %4 = getelementptr inbounds i8, ptr %0, i64 8
  %5 = load ptr, ptr %4, align 8
  %6 = getelementptr inbounds i8, ptr %5, i64 8
  %7 = load ptr, ptr %6, align 8
  %8 = getelementptr inbounds i8, ptr %7, i64 44
  %9 = load i32, ptr %8, align 4
  %10 = and i32 %9, 127
  %11 = icmp eq i32 %10, 64
  br i1 %11, label %12, label %_ZNK4Type12is_zero_typeEv.exit.thread

12:                                               ; preds = %3
  %13 = getelementptr inbounds i8, ptr %7, i64 8
  %14 = load ptr, ptr %13, align 8
  %15 = getelementptr inbounds i8, ptr %14, i64 8
  %16 = load ptr, ptr %15, align 8
  %17 = getelementptr inbounds i8, ptr %1, i64 40
  %18 = load ptr, ptr %17, align 8
  %19 = getelementptr inbounds i8, ptr %16, i64 40
  %20 = load i32, ptr %19, align 8
  %21 = getelementptr inbounds i8, ptr %18, i64 16
  %22 = load ptr, ptr %21, align 8
  %23 = zext i32 %20 to i64
  %24 = getelementptr inbounds ptr, ptr %22, i64 %23
  %25 = load ptr, ptr %24, align 8
  %26 = getelementptr inbounds i8, ptr %25, i64 16
  %27 = load i32, ptr %26, align 8
  %28 = zext i32 %27 to i64
  %29 = getelementptr inbounds [0 x %"struct.Type::TypeInfo"], ptr @_ZN4Type10_type_infoE, i64 0, i64 %28, i32 1
  %30 = load i8, ptr %29, align 4
  %31 = icmp eq i8 %30, 14
  %32 = icmp ugt i8 %30, 18
  %or.cond.i = or i1 %31, %32
  br i1 %or.cond.i, label %_ZNK4Type12is_zero_typeEv.exit.thread, label %_ZNK4Type12is_zero_typeEv.exit

_ZNK4Type12is_zero_typeEv.exit:                   ; preds = %12
  %33 = zext nneg i8 %30 to i64
  %34 = getelementptr inbounds [20 x ptr], ptr @_ZN4Type10_zero_typeE, i64 0, i64 %33
  %35 = load ptr, ptr %34, align 8
  %36 = icmp eq ptr %35, %25
  br i1 %36, label %37, label %_ZNK4Type12is_zero_typeEv.exit.thread

37:                                               ; preds = %_ZNK4Type12is_zero_typeEv.exit
  %38 = getelementptr inbounds i8, ptr %14, i64 16
  %39 = load ptr, ptr %38, align 8
  tail call void @_ZN4Node9set_req_XEjPS_P8PhaseGVN(ptr noundef nonnull align 8 dereferenceable(52) %0, i32 noundef 1, ptr noundef %39, ptr noundef nonnull %1) #10
  br label %_ZNK4Type12is_zero_typeEv.exit.thread

_ZNK4Type12is_zero_typeEv.exit.thread:            ; preds = %12, %3, %_ZNK4Type12is_zero_typeEv.exit, %37
  %.0 = phi ptr [ %0, %37 ], [ null, %_ZNK4Type12is_zero_typeEv.exit ], [ null, %3 ], [ null, %12 ]
  ret ptr %.0
}